; Function Attrs: mustprogress nounwind uwtable
define hidden void @_ZN15ClassLoaderData11clear_claimEi(ptr noundef nonnull align 8 dereferenceable(160) %0, i32 noundef %1) local_unnamed_addr #0 align 2 {
  %3 = xor i32 %1, -1
  %4 = getelementptr inbounds i8, ptr %0, i64 40
  br label %5

5:                                                ; preds = %9, %2
  %6 = load volatile i32, ptr %4, align 8
  %7 = and i32 %6, %1
  %8 = icmp eq i32 %7, 0
  br i1 %8, label %13, label %9

9:                                                ; preds = %5
  %10 = and i32 %6, %3
  %11 = tail call noundef i32 asm sideeffect "lock cmpxchgl $1,($3)", "={ax},r,{ax},r,~{cc},~{memory},~{dirflag},~{fpsr},~{flags}"(i32 %10, i32 %6, ptr nonnull %4) #16, !srcloc !16
  %12 = icmp eq i32 %11, %6
  br i1 %12, label %13, label %5, !llvm.loop !17

13:                                               ; preds = %9, %5
  ret void
}